(idatabase
Database
p0
(dp1
S'_Database__accounts'
p2
(lp3
(idatabase
Account
p4
(dp5
S'updated_date'
p6
cdatetime
datetime
p7
(S'\x07\xe4\t\x0c\x0f\x08-\x0b\x9e8'
p8
tp9
Rp10
sS'balance'
p11
I10
sS'id'
p12
I889798
sS'created_date'
p13
g7
(S'\x07\xe4\t\x0c\x0f\x08-\x0b\x9e\n'
p14
tp15
Rp16
sS'user'
p17
(idatabase
User
p18
(dp19
S'card'
p20
I6379
sS'name'
p21
S'cun'
p22
sS'PIN'
p23
I1111
sbsba(idatabase
Account
p24
(dp25
g6
g7
(S'\x07\xe4\t\x0c\x0f\x10/\nZ\xe2'
p26
tp27
Rp28
sg11
I30
sg12
I896526
sg13
g7
(S'\x07\xe4\t\x0c\x0f\x10/\nZ\xba'
p29
tp30
Rp31
sg17
(idatabase
User
p32
(dp33
g20
I6379
sg21
S'cun2'
p34
sg23
I1111
sbsbasb.