(idatabase
Database
p0
(dp1
S'_Database__accounts'
p2
(lp3
(idatabase
Account
p4
(dp5
S'updated_date'
p6
cdatetime
datetime
p7
(S'\x07\xe4\t\x0c\r\x0f4\x0bH\x89'
p8
tp9
Rp10
sS'name'
p11
S'joa'
p12
sS'PIN'
p13
S'1346'
p14
sS'created_date'
p15
g7
(S'\x07\xe4\t\x0c\r\x0f4\x0bH0'
p16
tp17
Rp18
sS'balance'
p19
S'100'
p20
sS'id'
p21
S'1234'
p22
sS'card'
p23
S'1311'
p24
sba(idatabase
Account
p25
(dp26
g6
g7
(S'\x07\xe4\t\x0c\r\x10\x13\x0e\x0b\xe8'
p27
tp28
Rp29
sg11
S'ala'
p30
sg13
S'1121'
p31
sg15
g7
(S'\x07\xe4\t\x0c\r\x10\x13\x0e\x0b\xb9'
p32
tp33
Rp34
sg19
S'100'
p35
sg21
S'4664'
p36
sg23
S'1312'
p37
sbasb.