(imodule.database
Database
p0
(dp1
S'_Database__accounts'
p2
(lp3
(imodule.database
Account
p4
(dp5
S'updated_date'
p6
cdatetime
datetime
p7
(S'\x07\xe4\t\x0c\x0f\x1d$\tH#'
p8
tp9
Rp10
sS'balance'
p11
I30
sS'id'
p12
I420538
sS'created_date'
p13
g7
(S'\x07\xe4\t\x0c\x0f\x1d$\tG\xf1'
p14
tp15
Rp16
sS'user'
p17
(imodule.database
User
p18
(dp19
S'card'
p20
I3020
sS'name'
p21
S'cun'
p22
sS'PIN'
p23
I1111
sbsba(imodule.database
Account
p24
(dp25
g6
g7
(S'\x07\xe4\t\x0c\x0f\x1e\x15\n\x89\xf1'
p26
tp27
Rp28
sg11
I10
sg12
I405739
sg13
g7
(S'\x07\xe4\t\x0c\x0f\x1e\x15\n\x89\xc8'
p29
tp30
Rp31
sg17
(imodule.database
User
p32
(dp33
g20
I3020
sg21
S'cun2'
p34
sg23
I1111
sbsba(imodule.database
Account
p35
(dp36
g6
g7
(S'\x07\xe4\t\x0c\x0f\x1e#\x04!r'
p37
tp38
Rp39
sg11
I50
sg12
I487215
sg13
g7
(S'\x07\xe4\t\x0c\x0f\x1e#\x04!G'
p40
tp41
Rp42
sg17
(imodule.database
User
p43
(dp44
g20
I3020
sg21
S'cun3'
p45
sg23
I1111
sbsbasb.