(imodule.database
Database
p0
(dp1
S'_Database__accounts'
p2
(lp3
(imodule.database
Account
p4
(dp5
S'updated_date'
p6
cdatetime
datetime
p7
(S'\x07\xe4\t\x0c\x0f\x1d$\tH#'
p8
tp9
Rp10
sS'balance'
p11
I30
sS'user'
p12
(imodule.database
User
p13
(dp14
S'card'
p15
I3020
sS'name'
p16
S'cun'
p17
sS'PIN'
p18
I1111
sbsS'created_date'
p19
g7
(S'\x07\xe4\t\x0c\x0f\x1d$\tG\xf1'
p20
tp21
Rp22
sS'id'
p23
I420538
sba(imodule.database
Account
p24
(dp25
g6
g7
(S'\x07\xe4\t\x0c\x0f\x1e\x15\n\x89\xf1'
p26
tp27
Rp28
sg11
I10
sg12
(imodule.database
User
p29
(dp30
g15
I3020
sg16
S'cun2'
p31
sg18
I1111
sbsg19
g7
(S'\x07\xe4\t\x0c\x0f\x1e\x15\n\x89\xc8'
p32
tp33
Rp34
sg23
I405739
sba(imodule.database
Account
p35
(dp36
g6
g7
(S'\x07\xe4\t\x0c\x0f\x1e#\x04!r'
p37
tp38
Rp39
sg11
I50
sg12
(imodule.database
User
p40
(dp41
g15
I3020
sg16
S'cun3'
p42
sg18
I1111
sbsg19
g7
(S'\x07\xe4\t\x0c\x0f\x1e#\x04!G'
p43
tp44
Rp45
sg23
I487215
sba(imodule.database
Account
p46
(dp47
g6
g7
(S'\x07\xe4\t\x0c\x0f*"\r\x035'
p48
tp49
Rp50
sg11
I50
sg12
(imodule.database
User
p51
(dp52
g15
I3020
sg16
S'cun4'
p53
sg18
I1111
sbsg19
g7
(S'\x07\xe4\t\x0c\x0f*"\r\x03\r'
p54
tp55
Rp56
sg23
I419802
sba(imodule.database
Account
p57
(dp58
g6
g7
(S'\x07\xe4\t\x0c\x0f+\x11\x00\x9c9'
p59
tp60
Rp61
sg11
I10
sg12
(imodule.database
User
p62
(dp63
g15
I3020
sg16
S'cun6'
p64
sg18
I1111
sbsg19
g7
(S'\x07\xe4\t\x0c\x0f+\x11\x00\x9c\x13'
p65
tp66
Rp67
sg23
I802593
sba(imodule.database
Account
p68
(dp69
g6
g7
(S"\x07\xe4\t\x0c\x0f4\x1e\x0c\xdb'"
p70
tp71
Rp72
sg11
I10
sg12
(imodule.database
User
p73
(dp74
g15
I3020
sg16
S'cun7'
p75
sg18
I1111
sbsg19
g7
(S'\x07\xe4\t\x0c\x0f4\x1e\x0c\xda\xed'
p76
tp77
Rp78
sg23
I164171
sbasb.